target datalayout = "e-m:e-p270:32:32-p271:32:32-p272:64:64-i64:64-i128:128-f80:128-n8:16:32:64-S128"
target triple = "x86_64-pc-linux-gnu"

%struct.option = type { i32, i32, ptr, ptr, ptr, ptr, i32, ptr, i64, ptr, i64, ptr }

@.str.68 = private unnamed_addr constant [18 x i8] c"only-is-on-demand\00", align 1
@.str.69 = private unnamed_addr constant [83 x i8] c"recursing into submodule with push.recurseSubmodules=only; using on-demand instead\00", align 1
@.str.85 = private unnamed_addr constant [1 x i8] zeroinitializer, align 1
@git_gettext_enabled = external global i32, align 4

; Function Attrs: inlinehint nounwind uwtable
define internal ptr @_(ptr noundef %0) #4 {
  %2 = alloca ptr, align 8
  %3 = alloca ptr, align 8
  store ptr %0, ptr %3, align 8, !tbaa !11
  %4 = load ptr, ptr %3, align 8, !tbaa !11
  %5 = load i8, ptr %4, align 1, !tbaa !56
  %6 = icmp ne i8 %5, 0
  br i1 %6, label %8, label %7

7:                                                ; preds = %1
  store ptr @.str.85, ptr %2, align 8
  br label %16

8:                                                ; preds = %1
  %9 = load i32, ptr @git_gettext_enabled, align 4, !tbaa !4
  %10 = icmp ne i32 %9, 0
  br i1 %10, label %13, label %11

11:                                               ; preds = %8
  %12 = load ptr, ptr %3, align 8, !tbaa !11
  store ptr %12, ptr %2, align 8
  br label %16

13:                                               ; preds = %8
  %14 = load ptr, ptr %3, align 8, !tbaa !11
  %15 = call ptr @dcgettext(ptr noundef null, ptr noundef %14, i32 noundef 5) #9
  store ptr %15, ptr %2, align 8
  br label %16

16:                                               ; preds = %13, %11, %7
  %17 = load ptr, ptr %2, align 8
  ret ptr %17
}

; Function Attrs: nounwind uwtable
define internal i32 @option_parse_recurse_submodules(ptr noundef %0, ptr noundef %1, i32 noundef %2) #0 {
  %4 = alloca ptr, align 8
  %5 = alloca ptr, align 8
  %6 = alloca i32, align 4
  %7 = alloca ptr, align 8
  store ptr %0, ptr %4, align 8, !tbaa !49
  store ptr %1, ptr %5, align 8, !tbaa !11
  store i32 %2, ptr %6, align 4, !tbaa !4
  call void @llvm.lifetime.start.p0(i64 8, ptr %7) #9
  %8 = load ptr, ptr %4, align 8, !tbaa !49
  %9 = getelementptr inbounds nuw %struct.option, ptr %8, i32 0, i32 3
  %10 = load ptr, ptr %9, align 8, !tbaa !20
  store ptr %10, ptr %7, align 8, !tbaa !51
  %11 = load i32, ptr %6, align 4, !tbaa !4
  %12 = icmp ne i32 %11, 0
  br i1 %12, label %13, label %15

13:                                               ; preds = %3
  %14 = load ptr, ptr %7, align 8, !tbaa !51
  store i32 0, ptr %14, align 4, !tbaa !4
  br label %35

15:                                               ; preds = %3
  %16 = load ptr, ptr %5, align 8, !tbaa !11
  %17 = call i32 @strcmp(ptr noundef %16, ptr noundef @.str.68) #11
  %18 = icmp ne i32 %17, 0
  br i1 %18, label %27, label %19

19:                                               ; preds = %15
  %20 = load ptr, ptr %7, align 8, !tbaa !51
  %21 = load i32, ptr %20, align 4, !tbaa !4
  %22 = icmp eq i32 %21, -5
  br i1 %22, label %23, label %26

23:                                               ; preds = %19
  %24 = call ptr @_(ptr noundef @.str.69)
  call void (ptr, ...) @warning(ptr noundef %24)
  %25 = load ptr, ptr %7, align 8, !tbaa !51
  store i32 -1, ptr %25, align 4, !tbaa !4
  br label %26

26:                                               ; preds = %23, %19
  br label %34

27:                                               ; preds = %15
  %28 = load ptr, ptr %4, align 8, !tbaa !49
  %29 = getelementptr inbounds nuw %struct.option, ptr %28, i32 0, i32 2
  %30 = load ptr, ptr %29, align 8, !tbaa !19
  %31 = load ptr, ptr %5, align 8, !tbaa !11
  %32 = call i32 @parse_push_recurse_submodules_arg(ptr noundef %30, ptr noundef %31)
  %33 = load ptr, ptr %7, align 8, !tbaa !51
  store i32 %32, ptr %33, align 4, !tbaa !4
  br label %34

34:                                               ; preds = %27, %26
  br label %35

35:                                               ; preds = %34, %13
  call void @llvm.lifetime.end.p0(i64 8, ptr %7) #9
  ret i32 0
}