; Function Attrs: nounwind uwtable
define internal noundef i32 @option_parse_recurse_submodules(ptr noundef readonly captures(none) %0, ptr noundef %1, i32 noundef %2) #0 {
  %4 = getelementptr inbounds nuw i8, ptr %0, i64 16
  %5 = load ptr, ptr %4, align 8, !tbaa !16
  %.not = icmp eq i32 %2, 0
  br i1 %.not, label %6, label %.sink.split

6:                                                ; preds = %3
  %7 = tail call i32 @strcmp(ptr noundef nonnull dereferenceable(1) %1, ptr noundef nonnull dereferenceable(18) @.str.68) #16
  %.not8 = icmp eq i32 %7, 0
  br i1 %.not8, label %8, label %15

8:                                                ; preds = %6
  %9 = load i32, ptr %5, align 4, !tbaa !4
  %10 = icmp eq i32 %9, -5
  br i1 %10, label %11, label %19

11:                                               ; preds = %8
  %12 = load i32, ptr @git_gettext_enabled, align 4, !tbaa !4
  %.not4.i = icmp eq i32 %12, 0
  br i1 %.not4.i, label %_.exit, label %13

13:                                               ; preds = %11
  %14 = tail call ptr @dcgettext(ptr noundef null, ptr noundef nonnull @.str.69, i32 noundef 5) #14
  br label %_.exit

_.exit:                                           ; preds = %11, %13
  %.0.i = phi ptr [ %14, %13 ], [ @.str.69, %11 ]
  tail call void (ptr, ...) @warning(ptr noundef %.0.i) #14
  br label %.sink.split

15:                                               ; preds = %6
  %16 = getelementptr inbounds nuw i8, ptr %0, i64 8
  %17 = load ptr, ptr %16, align 8, !tbaa !15
  %18 = tail call i32 @parse_push_recurse_submodules_arg(ptr noundef %17, ptr noundef nonnull %1) #14
  br label %.sink.split

.sink.split:                                      ; preds = %3, %_.exit, %15
  %.sink = phi i32 [ %18, %15 ], [ -1, %_.exit ], [ 0, %3 ]
  store i32 %.sink, ptr %5, align 4, !tbaa !4
  br label %19

19:                                               ; preds = %.sink.split, %8
  ret i32 0
}